target datalayout = "e-m:e-p270:32:32-p271:32:32-p272:64:64-i64:64-i128:128-f80:128-n8:16:32:64-S128"
target triple = "x86_64-pc-linux-gnu"

%"class.pybind11::object" = type { %"class.pybind11::handle" }
%"class.pybind11::handle" = type { ptr }
%class.anon.325 = type { i8 }
%"struct.(anonymous namespace)::OwnsPythonObjects" = type { %"class.pybind11::object" }

; Function Attrs: mustprogress nounwind uwtable
define linkonce_odr hidden noundef nonnull align 8 dereferenceable(8) ptr @_ZN8pybind116handle3ptrEv(ptr noundef nonnull align 8 dereferenceable(8) %0) #0 comdat align 2 {
  %2 = alloca ptr, align 8
  store ptr %0, ptr %2, align 8
  %3 = load ptr, ptr %2, align 8
  %4 = getelementptr inbounds %"class.pybind11::handle", ptr %3, i32 0, i32 0
  ret ptr %4
}

; Function Attrs: mustprogress nounwind uwtable
define linkonce_odr hidden void @_ZN8pybind116handleC2IP7_objectTnNSt9enable_ifIXsr6detail25is_pyobj_ptr_or_nullptr_tIT_EE5valueEiE4typeELi0EEES5_(ptr noundef nonnull align 8 dereferenceable(8) %0, ptr noundef %1) unnamed_addr #0 comdat align 2 {
  %3 = alloca ptr, align 8
  %4 = alloca ptr, align 8
  store ptr %0, ptr %3, align 8
  store ptr %1, ptr %4, align 8
  %5 = load ptr, ptr %3, align 8
  %6 = getelementptr inbounds %"class.pybind11::handle", ptr %5, i32 0, i32 0
  %7 = load ptr, ptr %4, align 8
  store ptr %7, ptr %6, align 8
  ret void
}

; Function Attrs: mustprogress uwtable
define internal noundef i32 @"_ZZZ32test_submodule_custom_type_setupRN8pybind117module_EENK3$_0clEP15_heaptypeobjectENKUlP7_objectPFiS6_PvES7_E_clES6_S9_S7_"(ptr noundef nonnull align 1 dereferenceable(1) %0, ptr noundef %1, ptr noundef %2, ptr noundef %3) #1 align 2 {
  %5 = alloca i32, align 4
  %6 = alloca ptr, align 8
  %7 = alloca ptr, align 8
  %8 = alloca ptr, align 8
  %9 = alloca ptr, align 8
  %10 = alloca ptr, align 8
  %11 = alloca %"class.pybind11::handle", align 8
  %12 = alloca i32, align 4
  store ptr %0, ptr %6, align 8
  store ptr %1, ptr %7, align 8
  store ptr %2, ptr %8, align 8
  store ptr %3, ptr %9, align 8
  %13 = load ptr, ptr %7, align 8
  call void @_ZN8pybind116handleC2IP7_objectTnNSt9enable_ifIXsr6detail25is_pyobj_ptr_or_nullptr_tIT_EE5valueEiE4typeELi0EEES5_(ptr noundef nonnull align 8 dereferenceable(8) %11, ptr noundef %13)
  %14 = call noundef nonnull align 8 dereferenceable(8) ptr @_ZN8pybind114castIRN12_GLOBAL__N_117OwnsPythonObjectsETnNSt9enable_ifIXaantsr6detail11is_pyobjectIT_EE5valuentsr6detail22is_same_ignoring_cvrefIS5_P7_objectEE5valueEiE4typeELi0EEES5_RKNS_6handleE(ptr noundef nonnull align 8 dereferenceable(8) %11)
  store ptr %14, ptr %10, align 8
  br label %15

15:                                               ; preds = %4
  %16 = load ptr, ptr %10, align 8
  %17 = getelementptr inbounds %"struct.(anonymous namespace)::OwnsPythonObjects", ptr %16, i32 0, i32 0
  %18 = call noundef nonnull align 8 dereferenceable(8) ptr @_ZN8pybind116handle3ptrEv(ptr noundef nonnull align 8 dereferenceable(8) %17)
  %19 = load ptr, ptr %18, align 8
  %20 = icmp ne ptr %19, null
  br i1 %20, label %21, label %34

21:                                               ; preds = %15
  %22 = load ptr, ptr %8, align 8
  %23 = load ptr, ptr %10, align 8
  %24 = getelementptr inbounds %"struct.(anonymous namespace)::OwnsPythonObjects", ptr %23, i32 0, i32 0
  %25 = call noundef nonnull align 8 dereferenceable(8) ptr @_ZN8pybind116handle3ptrEv(ptr noundef nonnull align 8 dereferenceable(8) %24)
  %26 = load ptr, ptr %25, align 8
  %27 = load ptr, ptr %9, align 8
  %28 = call noundef i32 %22(ptr noundef %26, ptr noundef %27)
  store i32 %28, ptr %12, align 4
  %29 = load i32, ptr %12, align 4
  %30 = icmp ne i32 %29, 0
  br i1 %30, label %31, label %33

31:                                               ; preds = %21
  %32 = load i32, ptr %12, align 4
  store i32 %32, ptr %5, align 4
  br label %36

33:                                               ; preds = %21
  br label %34

34:                                               ; preds = %33, %15
  br label %35

35:                                               ; preds = %34
  store i32 0, ptr %5, align 4
  br label %36

36:                                               ; preds = %35, %31
  %37 = load i32, ptr %5, align 4
  ret i32 %37
}

; Function Attrs: mustprogress uwtable
define internal noundef i32 @"_ZZZ32test_submodule_custom_type_setupRN8pybind117module_EENK3$_0clEP15_heaptypeobjectENUlP7_objectPFiS6_PvES7_E_8__invokeES6_S9_S7_"(ptr noundef %0, ptr noundef %1, ptr noundef %2) #1 align 2 {
  %4 = alloca ptr, align 8
  %5 = alloca ptr, align 8
  %6 = alloca ptr, align 8
  %7 = alloca %class.anon.325, align 1
  store ptr %0, ptr %4, align 8
  store ptr %1, ptr %5, align 8
  store ptr %2, ptr %6, align 8
  %8 = load ptr, ptr %4, align 8
  %9 = load ptr, ptr %5, align 8
  %10 = load ptr, ptr %6, align 8
  %11 = call noundef i32 @"_ZZZ32test_submodule_custom_type_setupRN8pybind117module_EENK3$_0clEP15_heaptypeobjectENKUlP7_objectPFiS6_PvES7_E_clES6_S9_S7_"(ptr noundef nonnull align 1 dereferenceable(1) %7, ptr noundef %8, ptr noundef %9, ptr noundef %10)
  ret i32 %11
}