; Function Attrs: mustprogress uwtable
define internal noundef i32 @"_ZZZ32test_submodule_custom_type_setupRN8pybind117module_EENK3$_0clEP15_heaptypeobjectENUlP7_objectPFiS6_PvES7_E_8__invokeES6_S9_S7_"(ptr noundef %0, ptr nocapture noundef readonly %1, ptr noundef %2) #1 align 2 {
  %4 = alloca %"class.pybind11::handle", align 8
  call void @llvm.lifetime.start.p0(i64 8, ptr nonnull %4)
  store ptr %0, ptr %4, align 8
  %5 = call fastcc noundef nonnull align 8 dereferenceable(8) ptr @_ZN8pybind114castIRN12_GLOBAL__N_117OwnsPythonObjectsETnNSt9enable_ifIXaantsr6detail11is_pyobjectIT_EE5valuentsr6detail22is_same_ignoring_cvrefIS5_P7_objectEE5valueEiE4typeELi0EEES5_RKNS_6handleE(ptr noundef nonnull align 8 dereferenceable(8) %4)
  %6 = load ptr, ptr %5, align 8
  %.not.i = icmp eq ptr %6, null
  br i1 %.not.i, label %9, label %7

7:                                                ; preds = %3
  %8 = tail call noundef i32 %1(ptr noundef nonnull %6, ptr noundef %2)
  %.not8.i = icmp eq i32 %8, 0
  br i1 %.not8.i, label %9, label %"_ZZZ32test_submodule_custom_type_setupRN8pybind117module_EENK3$_0clEP15_heaptypeobjectENKUlP7_objectPFiS6_PvES7_E_clES6_S9_S7_.exit"

9:                                                ; preds = %7, %3
  br label %"_ZZZ32test_submodule_custom_type_setupRN8pybind117module_EENK3$_0clEP15_heaptypeobjectENKUlP7_objectPFiS6_PvES7_E_clES6_S9_S7_.exit"

"_ZZZ32test_submodule_custom_type_setupRN8pybind117module_EENK3$_0clEP15_heaptypeobjectENKUlP7_objectPFiS6_PvES7_E_clES6_S9_S7_.exit": ; preds = %7, %9
  %.0.i = phi i32 [ 0, %9 ], [ %8, %7 ]
  call void @llvm.lifetime.end.p0(i64 8, ptr nonnull %4)
  ret i32 %.0.i
}